target datalayout = "e-m:e-p270:32:32-p271:32:32-p272:64:64-i64:64-i128:128-f80:128-n8:16:32:64-S128"
target triple = "x86_64-pc-linux-gnu"

%"class.smt::eq_justification" = type { ptr }
%class.ptr_vector.163 = type { %class.vector.164 }
%class.vector.164 = type { ptr }
%"class.smt::enode" = type { ptr, ptr, ptr, ptr, i32, i32, i32, i16, i32, i8, i8, %class.ptr_vector.163, %class.id_var_list, %"struct.smt::trans_justification", %class.approx_set, %class.approx_set, [0 x ptr] }
%class.id_var_list = type { i32, ptr }
%"struct.smt::trans_justification" = type { ptr, %"class.smt::eq_justification" }
%class.approx_set = type { %class.approx_set_tpl }
%class.approx_set_tpl = type { i64 }

@_ZN3smtL21null_eq_justificationE = internal global %"class.smt::eq_justification" zeroinitializer, align 8

; Function Attrs: mustprogress nounwind uwtable
define hidden void @_ZN3smt7context12invert_transEPNS_5enodeE(ptr noundef nonnull align 8 dereferenceable(10544) %0, ptr noundef %1) #4 align 2 {
  %3 = alloca ptr, align 8
  %4 = alloca ptr, align 8
  %5 = alloca ptr, align 8
  %6 = alloca ptr, align 8
  %7 = alloca %"class.smt::eq_justification", align 8
  %8 = alloca ptr, align 8
  %9 = alloca %"class.smt::eq_justification", align 8
  store ptr %0, ptr %3, align 8, !tbaa !28
  store ptr %1, ptr %4, align 8, !tbaa !932
  call void @llvm.lifetime.start.p0(i64 8, ptr %5) #3
  %10 = load ptr, ptr %4, align 8, !tbaa !932
  %11 = getelementptr inbounds nuw %"class.smt::enode", ptr %10, i32 0, i32 13
  %12 = getelementptr inbounds nuw %"struct.smt::trans_justification", ptr %11, i32 0, i32 0
  %13 = load ptr, ptr %12, align 8, !tbaa !934
  store ptr %13, ptr %5, align 8, !tbaa !932
  call void @llvm.lifetime.start.p0(i64 8, ptr %6) #3
  %14 = load ptr, ptr %4, align 8, !tbaa !932
  store ptr %14, ptr %6, align 8, !tbaa !932
  call void @llvm.lifetime.start.p0(i64 8, ptr %7) #3
  %15 = load ptr, ptr %4, align 8, !tbaa !932
  %16 = getelementptr inbounds nuw %"class.smt::enode", ptr %15, i32 0, i32 13
  %17 = getelementptr inbounds nuw %"struct.smt::trans_justification", ptr %16, i32 0, i32 1
  call void @llvm.memcpy.p0.p0.i64(ptr align 8 %7, ptr align 8 %17, i64 8, i1 false), !tbaa.struct !580
  %18 = load ptr, ptr %6, align 8, !tbaa !932
  %19 = getelementptr inbounds nuw %"class.smt::enode", ptr %18, i32 0, i32 13
  %20 = getelementptr inbounds nuw %"struct.smt::trans_justification", ptr %19, i32 0, i32 0
  store ptr null, ptr %20, align 8, !tbaa !934
  %21 = load ptr, ptr %6, align 8, !tbaa !932
  %22 = getelementptr inbounds nuw %"class.smt::enode", ptr %21, i32 0, i32 13
  %23 = getelementptr inbounds nuw %"struct.smt::trans_justification", ptr %22, i32 0, i32 1
  call void @llvm.memcpy.p0.p0.i64(ptr align 8 %23, ptr align 8 @_ZN3smtL21null_eq_justificationE, i64 8, i1 false), !tbaa.struct !580
  %24 = load ptr, ptr %6, align 8, !tbaa !932
  %25 = getelementptr inbounds nuw %"class.smt::enode", ptr %24, i32 0, i32 9
  store i8 0, ptr %25, align 4, !tbaa !942
  br label %26

26:                                               ; preds = %29, %2
  %27 = load ptr, ptr %5, align 8, !tbaa !932
  %28 = icmp ne ptr %27, null
  br i1 %28, label %29, label %48

29:                                               ; preds = %26
  call void @llvm.lifetime.start.p0(i64 8, ptr %8) #3
  %30 = load ptr, ptr %5, align 8, !tbaa !932
  %31 = getelementptr inbounds nuw %"class.smt::enode", ptr %30, i32 0, i32 13
  %32 = getelementptr inbounds nuw %"struct.smt::trans_justification", ptr %31, i32 0, i32 0
  %33 = load ptr, ptr %32, align 8, !tbaa !934
  store ptr %33, ptr %8, align 8, !tbaa !932
  call void @llvm.lifetime.start.p0(i64 8, ptr %9) #3
  %34 = load ptr, ptr %5, align 8, !tbaa !932
  %35 = getelementptr inbounds nuw %"class.smt::enode", ptr %34, i32 0, i32 13
  %36 = getelementptr inbounds nuw %"struct.smt::trans_justification", ptr %35, i32 0, i32 1
  call void @llvm.memcpy.p0.p0.i64(ptr align 8 %9, ptr align 8 %36, i64 8, i1 false), !tbaa.struct !580
  %37 = load ptr, ptr %6, align 8, !tbaa !932
  %38 = load ptr, ptr %5, align 8, !tbaa !932
  %39 = getelementptr inbounds nuw %"class.smt::enode", ptr %38, i32 0, i32 13
  %40 = getelementptr inbounds nuw %"struct.smt::trans_justification", ptr %39, i32 0, i32 0
  store ptr %37, ptr %40, align 8, !tbaa !934
  %41 = load ptr, ptr %5, align 8, !tbaa !932
  %42 = getelementptr inbounds nuw %"class.smt::enode", ptr %41, i32 0, i32 13
  %43 = getelementptr inbounds nuw %"struct.smt::trans_justification", ptr %42, i32 0, i32 1
  call void @llvm.memcpy.p0.p0.i64(ptr align 8 %43, ptr align 8 %7, i64 8, i1 false), !tbaa.struct !580
  %44 = load ptr, ptr %5, align 8, !tbaa !932
  %45 = getelementptr inbounds nuw %"class.smt::enode", ptr %44, i32 0, i32 9
  store i8 0, ptr %45, align 4, !tbaa !942
  %46 = load ptr, ptr %5, align 8, !tbaa !932
  store ptr %46, ptr %6, align 8, !tbaa !932
  call void @llvm.memcpy.p0.p0.i64(ptr align 8 %7, ptr align 8 %9, i64 8, i1 false), !tbaa.struct !580
  %47 = load ptr, ptr %8, align 8, !tbaa !932
  store ptr %47, ptr %5, align 8, !tbaa !932
  call void @llvm.lifetime.end.p0(i64 8, ptr %9) #3
  call void @llvm.lifetime.end.p0(i64 8, ptr %8) #3
  br label %26, !llvm.loop !980

48:                                               ; preds = %26
  call void @llvm.lifetime.end.p0(i64 8, ptr %7) #3
  call void @llvm.lifetime.end.p0(i64 8, ptr %6) #3
  call void @llvm.lifetime.end.p0(i64 8, ptr %5) #3
  ret void
}