; Function Attrs: mustprogress nofree norecurse nosync nounwind memory(readwrite, inaccessiblemem: none) uwtable
define hidden void @_ZN3smt7context12invert_transEPNS_5enodeE(ptr noundef nonnull readnone align 8 captures(none) dereferenceable(10544) %0, ptr noundef initializes((52, 53)) %1) local_unnamed_addr #17 align 2 {
  %3 = getelementptr inbounds nuw i8, ptr %1, i64 80
  %4 = load ptr, ptr %3, align 8, !tbaa !876
  %5 = getelementptr inbounds nuw i8, ptr %1, i64 88
  %.sroa.02.0.copyload = load ptr, ptr %5, align 8, !tbaa !577
  store ptr null, ptr %3, align 8, !tbaa !876
  %6 = load i64, ptr @_ZN3smtL21null_eq_justificationE, align 8, !tbaa !577
  store i64 %6, ptr %5, align 8, !tbaa !577
  %7 = getelementptr inbounds nuw i8, ptr %1, i64 52
  store i8 0, ptr %7, align 4, !tbaa !877
  %.not19 = icmp eq ptr %4, null
  br i1 %.not19, label %._crit_edge, label %.lr.ph

.lr.ph:                                           ; preds = %2, %.lr.ph
  %.022 = phi ptr [ %9, %.lr.ph ], [ %4, %2 ]
  %.01821 = phi ptr [ %.022, %.lr.ph ], [ %1, %2 ]
  %.sroa.02.020 = phi ptr [ %.sroa.0.0.copyload, %.lr.ph ], [ %.sroa.02.0.copyload, %2 ]
  %8 = getelementptr inbounds nuw i8, ptr %.022, i64 80
  %9 = load ptr, ptr %8, align 8, !tbaa !876
  %10 = getelementptr inbounds nuw i8, ptr %.022, i64 88
  %.sroa.0.0.copyload = load ptr, ptr %10, align 8, !tbaa !577
  store ptr %.01821, ptr %8, align 8, !tbaa !876
  store ptr %.sroa.02.020, ptr %10, align 8, !tbaa !577
  %11 = getelementptr inbounds nuw i8, ptr %.022, i64 52
  store i8 0, ptr %11, align 4, !tbaa !877
  %.not = icmp eq ptr %9, null
  br i1 %.not, label %._crit_edge, label %.lr.ph, !llvm.loop !878

._crit_edge:                                      ; preds = %.lr.ph, %2
  ret void
}